; Function Attrs: nounwind uwtable
define internal fastcc ptr @_init_l_Lean___aux__Init__NotationExtra______macroRules__Lean__convCalc____1___closed__4() unnamed_addr #0 {
  %1 = load ptr, ptr @l_Lean_unbracketedExplicitBinders___closed__1, align 8, !tbaa !11
  %2 = load ptr, ptr @l_Lean_expandExplicitBindersAux_loop___closed__1, align 8, !tbaa !11
  %3 = load ptr, ptr @l_Lean___aux__Init__NotationExtra______macroRules__Lean__convCalc____1___closed__1, align 8, !tbaa !11
  %4 = load ptr, ptr @l_Lean___aux__Init__NotationExtra______macroRules__Lean__convCalc____1___closed__2, align 8, !tbaa !11
  %5 = load ptr, ptr @l_Lean___aux__Init__NotationExtra______macroRules__Lean__convCalc____1___closed__3, align 8, !tbaa !11
  %6 = tail call ptr @l_Lean_Name_mkStr5(ptr noundef %1, ptr noundef %2, ptr noundef %3, ptr noundef %4, ptr noundef %5) #5
  ret ptr %6
}